; Function Attrs: mustprogress nofree norecurse nosync nounwind willreturn memory(argmem: readwrite) uwtable
define range(i32 0, 2) i32 @tng_molecule_residue_of_index_get(ptr noundef readnone captures(none) %0, ptr noundef readonly captures(none) %1, i64 noundef %2, ptr noundef writeonly captures(none) initializes((0, 8)) %3) local_unnamed_addr #0 {
  %5 = getelementptr inbounds nuw i8, ptr %1, i64 24
  %6 = load i64, ptr %5, align 8, !tbaa !78
  %.not = icmp slt i64 %2, %6
  br i1 %.not, label %7, label %11

7:                                                ; preds = %4
  %8 = getelementptr inbounds nuw i8, ptr %1, i64 64
  %9 = load ptr, ptr %8, align 8, !tbaa !77
  %10 = getelementptr inbounds %struct.tng_residue, ptr %9, i64 %2
  br label %11

11:                                               ; preds = %4, %7
  %storemerge = phi ptr [ %10, %7 ], [ null, %4 ]
  %.0 = phi i32 [ 0, %7 ], [ 1, %4 ]
  store ptr %storemerge, ptr %3, align 8, !tbaa !11
  ret i32 %.0
}